; Function Attrs: mustprogress nounwind uwtable
define noundef nonnull align 8 dereferenceable(8) ptr @_ZN9grpc_core11ChannelArgsaSERKS0_(ptr noundef nonnull returned align 8 dereferenceable(8) %0, ptr noundef nonnull readonly align 8 captures(none) dereferenceable(8) %1) local_unnamed_addr #13 align 2 personality ptr @__gxx_personality_v0 {
  %3 = load ptr, ptr %1, align 8, !tbaa !21
  %.not.i.i = icmp eq ptr %3, null
  br i1 %.not.i.i, label %6, label %4

4:                                                ; preds = %2
  %5 = atomicrmw add ptr %3, i64 1 monotonic, align 8
  %.pre.i.i = load ptr, ptr %1, align 8, !tbaa !21
  br label %6

6:                                                ; preds = %4, %2
  %7 = phi ptr [ %.pre.i.i, %4 ], [ null, %2 ]
  %8 = load ptr, ptr %0, align 8, !tbaa !25
  store ptr %7, ptr %0, align 8, !tbaa !25
  %.not.i.i.i = icmp eq ptr %8, null
  br i1 %.not.i.i.i, label %_ZN9grpc_core3AVLINS_21RefCountedStringValueENS_11ChannelArgs5ValueEEaSERKS4_.exit, label %9

9:                                                ; preds = %6
  %10 = atomicrmw sub ptr %8, i64 1 acq_rel, align 8
  %11 = icmp eq i64 %10, 1
  br i1 %11, label %12, label %_ZN9grpc_core3AVLINS_21RefCountedStringValueENS_11ChannelArgs5ValueEEaSERKS4_.exit, !prof !24

12:                                               ; preds = %9
  tail call void @_ZNK9grpc_core11UnrefDeleteclIKNS_3AVLINS_21RefCountedStringValueENS_11ChannelArgs5ValueEE4NodeEEEvPT_(ptr noundef nonnull align 8 dereferenceable(8) %8, ptr noundef nonnull align 8 dereferenceable(8) %8)
  br label %_ZN9grpc_core3AVLINS_21RefCountedStringValueENS_11ChannelArgs5ValueEEaSERKS4_.exit

_ZN9grpc_core3AVLINS_21RefCountedStringValueENS_11ChannelArgs5ValueEEaSERKS4_.exit: ; preds = %6, %9, %12
  ret ptr %0
}